target datalayout = "e-m:e-p270:32:32-p271:32:32-p272:64:64-i64:64-i128:128-f80:128-n8:16:32:64-S128"
target triple = "x86_64-unknown-linux-gnu"

%struct.IntProperty = type { i32, i32, i32, ptr, ptr }

; Function Attrs: mustprogress uwtable
define internal noundef i32 @_ZL18defaultGetMaxValueRK11IntProperty9UProperty(ptr noundef nonnull align 8 dereferenceable(32) %prop, i32 noundef %0) #0 {
entry:
  %prop.addr = alloca ptr, align 8
  %.addr = alloca i32, align 4
  store ptr %prop, ptr %prop.addr, align 8
  store i32 %0, ptr %.addr, align 4
  %1 = load ptr, ptr %prop.addr, align 8
  %column = getelementptr inbounds %struct.IntProperty, ptr %1, i32 0, i32 0
  %2 = load i32, ptr %column, align 8
  %call = call i32 @uprv_getMaxValues_75(i32 noundef %2)
  %3 = load ptr, ptr %prop.addr, align 8
  %mask = getelementptr inbounds %struct.IntProperty, ptr %3, i32 0, i32 1
  %4 = load i32, ptr %mask, align 4
  %and = and i32 %call, %4
  %5 = load ptr, ptr %prop.addr, align 8
  %shift = getelementptr inbounds %struct.IntProperty, ptr %5, i32 0, i32 2
  %6 = load i32, ptr %shift, align 8
  %shr = lshr i32 %and, %6
  ret i32 %shr
}