; Function Attrs: mustprogress uwtable
define internal noundef i32 @_ZL18defaultGetMaxValueRK11IntProperty9UProperty(ptr nocapture noundef nonnull readonly align 8 dereferenceable(32) %prop, i32 %0) #0 {
entry:
  %1 = load i32, ptr %prop, align 8
  %call = tail call i32 @uprv_getMaxValues_75(i32 noundef %1)
  %mask = getelementptr inbounds i8, ptr %prop, i64 4
  %2 = load i32, ptr %mask, align 4
  %and = and i32 %2, %call
  %shift = getelementptr inbounds i8, ptr %prop, i64 8
  %3 = load i32, ptr %shift, align 8
  %shr = lshr i32 %and, %3
  ret i32 %shr
}